; Function Attrs: mustprogress nofree norecurse nosync nounwind willreturn memory(read, argmem: readwrite, inaccessiblemem: none) uwtable
define noundef i32 @H5HF_get_tiny_info_test(ptr noundef readonly captures(none) %0, ptr noundef writeonly captures(none) %1, ptr noundef writeonly captures(none) %2) local_unnamed_addr #6 {
  %4 = load i8, ptr @H5HF_init_g, align 1, !tbaa !3, !range !7, !noundef !8
  %5 = trunc nuw i8 %4 to i1
  %6 = load i8, ptr @H5_libterm_g, align 1, !range !7
  %7 = trunc nuw i8 %6 to i1
  %8 = xor i1 %7, true
  %9 = select i1 %5, i1 true, i1 %8
  br i1 %9, label %10, label %16, !prof !9

10:                                               ; preds = %3
  %11 = load ptr, ptr %0, align 8, !tbaa !10
  %12 = getelementptr inbounds nuw i8, ptr %11, i64 688
  %13 = load i64, ptr %12, align 8, !tbaa !73
  store i64 %13, ptr %1, align 8, !tbaa !69
  %14 = getelementptr inbounds nuw i8, ptr %11, i64 696
  %15 = load i8, ptr %14, align 8, !tbaa !74, !range !7, !noundef !8
  store i8 %15, ptr %2, align 1, !tbaa !3
  br label %16

16:                                               ; preds = %10, %3
  ret i32 0
}